target datalayout = "e-m:e-p270:32:32-p271:32:32-p272:64:64-i64:64-i128:128-f80:128-n8:16:32:64-S128"
target triple = "x86_64-pc-linux-gnu"

%struct.blob = type { ptr, ptr, i64, i64, i32 }
%struct.fileblob = type { ptr, i32, %struct.blob, ptr, ptr, i64, i8 }
%struct.cli_ctx_tag = type { ptr, ptr, ptr, ptr, ptr, ptr, ptr, i64, ptr, i32, i32, ptr, i32, i32, ptr, [16 x i8], ptr, ptr, ptr, ptr, ptr, ptr, %struct.timeval, i8, i8 }
%struct.timeval = type { i64, i64 }
%struct.cl_engine = type { i32, i32, i32, [2 x i32], i32, i32, i32, ptr, i32, i64, i32, i32, i64, i64, i32, i32, i32, i32, ptr, ptr, ptr, ptr, ptr, ptr, ptr, ptr, ptr, ptr, ptr, ptr, ptr, ptr, ptr, ptr, ptr, ptr, ptr, i64, ptr, %struct.crtmgr, ptr, ptr, ptr, ptr, ptr, ptr, ptr, ptr, ptr, ptr, ptr, ptr, ptr, ptr, ptr, ptr, ptr, %struct.cli_all_bc, [7 x ptr], [7 x i32], i32, i32, i32, i32, i64, i64, i64, i64, i64, ptr, ptr, ptr, ptr, ptr, ptr, ptr, ptr, ptr, i32, i32, i32, i64, i64, i64, ptr }
%struct.crtmgr = type { ptr, i32 }
%struct.cli_all_bc = type { ptr, i32, ptr, %struct.cli_environment, i32 }
%struct.cli_environment = type { i32, i32, i32, i32, i32, i32, i32, [65 x i8], [65 x i8], [65 x i8], [65 x i8], [65 x i8], [65 x i8], [65 x i8], i8, i8, i8, i8, i8, i8, i8, i8, i8 }

@.str.17 = private unnamed_addr constant [32 x i8] c"fileblobDestructiveDestroy: %s\0A\00", align 1

; Function Attrs: nounwind uwtable
define void @fileblobDestructiveDestroy(ptr noundef %0) #0 {
  %2 = alloca ptr, align 8
  store ptr %0, ptr %2, align 8
  %3 = load ptr, ptr %2, align 8
  %4 = getelementptr inbounds %struct.fileblob, ptr %3, i32 0, i32 0
  %5 = load ptr, ptr %4, align 8
  %6 = icmp ne ptr %5, null
  br i1 %6, label %7, label %46

7:                                                ; preds = %1
  %8 = load ptr, ptr %2, align 8
  %9 = getelementptr inbounds %struct.fileblob, ptr %8, i32 0, i32 3
  %10 = load ptr, ptr %9, align 8
  %11 = icmp ne ptr %10, null
  br i1 %11, label %12, label %46

12:                                               ; preds = %7
  %13 = load ptr, ptr %2, align 8
  %14 = getelementptr inbounds %struct.fileblob, ptr %13, i32 0, i32 0
  %15 = load ptr, ptr %14, align 8
  %16 = call i32 @fclose(ptr noundef %15)
  %17 = load ptr, ptr %2, align 8
  %18 = getelementptr inbounds %struct.fileblob, ptr %17, i32 0, i32 3
  %19 = load ptr, ptr %18, align 8
  call void (ptr, ...) @cli_dbgmsg(ptr noundef @.str.17, ptr noundef %19)
  %20 = load ptr, ptr %2, align 8
  %21 = getelementptr inbounds %struct.fileblob, ptr %20, i32 0, i32 4
  %22 = load ptr, ptr %21, align 8
  %23 = icmp ne ptr %22, null
  br i1 %23, label %24, label %33

24:                                               ; preds = %12
  %25 = load ptr, ptr %2, align 8
  %26 = getelementptr inbounds %struct.fileblob, ptr %25, i32 0, i32 4
  %27 = load ptr, ptr %26, align 8
  %28 = getelementptr inbounds %struct.cli_ctx_tag, ptr %27, i32 0, i32 6
  %29 = load ptr, ptr %28, align 8
  %30 = getelementptr inbounds %struct.cl_engine, ptr %29, i32 0, i32 8
  %31 = load i32, ptr %30, align 8
  %32 = icmp ne i32 %31, 0
  br i1 %32, label %38, label %33

33:                                               ; preds = %24, %12
  %34 = load ptr, ptr %2, align 8
  %35 = getelementptr inbounds %struct.fileblob, ptr %34, i32 0, i32 3
  %36 = load ptr, ptr %35, align 8
  %37 = call i32 @cli_unlink(ptr noundef %36)
  br label %38

38:                                               ; preds = %33, %24
  %39 = load ptr, ptr %2, align 8
  %40 = getelementptr inbounds %struct.fileblob, ptr %39, i32 0, i32 3
  %41 = load ptr, ptr %40, align 8
  call void @free(ptr noundef %41) #9
  %42 = load ptr, ptr %2, align 8
  %43 = getelementptr inbounds %struct.fileblob, ptr %42, i32 0, i32 0
  store ptr null, ptr %43, align 8
  %44 = load ptr, ptr %2, align 8
  %45 = getelementptr inbounds %struct.fileblob, ptr %44, i32 0, i32 3
  store ptr null, ptr %45, align 8
  br label %46

46:                                               ; preds = %38, %7, %1
  %47 = load ptr, ptr %2, align 8
  %48 = getelementptr inbounds %struct.fileblob, ptr %47, i32 0, i32 2
  %49 = getelementptr inbounds %struct.blob, ptr %48, i32 0, i32 0
  %50 = load ptr, ptr %49, align 8
  %51 = icmp ne ptr %50, null
  br i1 %51, label %52, label %60

52:                                               ; preds = %46
  %53 = load ptr, ptr %2, align 8
  %54 = getelementptr inbounds %struct.fileblob, ptr %53, i32 0, i32 2
  %55 = getelementptr inbounds %struct.blob, ptr %54, i32 0, i32 0
  %56 = load ptr, ptr %55, align 8
  call void @free(ptr noundef %56) #9
  %57 = load ptr, ptr %2, align 8
  %58 = getelementptr inbounds %struct.fileblob, ptr %57, i32 0, i32 2
  %59 = getelementptr inbounds %struct.blob, ptr %58, i32 0, i32 0
  store ptr null, ptr %59, align 8
  br label %60

60:                                               ; preds = %52, %46
  %61 = load ptr, ptr %2, align 8
  call void @fileblobDestroy(ptr noundef %61)
  ret void
}