; Function Attrs: nounwind uwtable
define void @fileblobDestructiveDestroy(ptr noundef %0) local_unnamed_addr #2 {
  %2 = load ptr, ptr %0, align 8
  %.not = icmp eq ptr %2, null
  br i1 %.not, label %21, label %3

3:                                                ; preds = %1
  %4 = getelementptr inbounds i8, ptr %0, i64 56
  %5 = load ptr, ptr %4, align 8
  %.not16 = icmp eq ptr %5, null
  br i1 %.not16, label %21, label %6

6:                                                ; preds = %3
  %7 = tail call i32 @fclose(ptr noundef nonnull %2)
  %8 = load ptr, ptr %4, align 8
  tail call void (ptr, ...) @cli_dbgmsg(ptr noundef nonnull @.str.17, ptr noundef %8) #16
  %9 = getelementptr inbounds i8, ptr %0, i64 64
  %10 = load ptr, ptr %9, align 8
  %.not17 = icmp eq ptr %10, null
  br i1 %.not17, label %16, label %11

11:                                               ; preds = %6
  %12 = getelementptr inbounds i8, ptr %10, i64 48
  %13 = load ptr, ptr %12, align 8
  %14 = getelementptr inbounds i8, ptr %13, i64 40
  %15 = load i32, ptr %14, align 8
  %.not18 = icmp eq i32 %15, 0
  br i1 %.not18, label %16, label %19

16:                                               ; preds = %11, %6
  %17 = load ptr, ptr %4, align 8
  %18 = tail call i32 @cli_unlink(ptr noundef %17) #16
  br label %19

19:                                               ; preds = %16, %11
  %20 = load ptr, ptr %4, align 8
  tail call void @free(ptr noundef %20) #16
  store ptr null, ptr %0, align 8
  store ptr null, ptr %4, align 8
  br label %21

21:                                               ; preds = %19, %3, %1
  %22 = getelementptr inbounds i8, ptr %0, i64 16
  %23 = load ptr, ptr %22, align 8
  %.not19 = icmp eq ptr %23, null
  br i1 %.not19, label %25, label %24

24:                                               ; preds = %21
  tail call void @free(ptr noundef nonnull %23) #16
  store ptr null, ptr %22, align 8
  br label %25

25:                                               ; preds = %24, %21
  tail call void @fileblobDestroy(ptr noundef nonnull %0)
  ret void
}